target datalayout = "e-m:e-p270:32:32-p271:32:32-p272:64:64-i64:64-i128:128-f80:128-n8:16:32:64-S128"
target triple = "x86_64-pc-linux-gnu"

; Function Attrs: nounwind uwtable
define void @av_cast5_crypt(ptr noundef %0, ptr noundef %1, ptr noundef %2, i32 noundef %3, i32 noundef %4) #0 {
  %6 = alloca ptr, align 8
  %7 = alloca ptr, align 8
  %8 = alloca ptr, align 8
  %9 = alloca i32, align 4
  %10 = alloca i32, align 4
  store ptr %0, ptr %6, align 8, !tbaa !4
  store ptr %1, ptr %7, align 8, !tbaa !9
  store ptr %2, ptr %8, align 8, !tbaa !9
  store i32 %3, ptr %9, align 4, !tbaa !11
  store i32 %4, ptr %10, align 4, !tbaa !11
  br label %11

11:                                               ; preds = %26, %5
  %12 = load i32, ptr %9, align 4, !tbaa !11
  %13 = add nsw i32 %12, -1
  store i32 %13, ptr %9, align 4, !tbaa !11
  %14 = icmp ne i32 %12, 0
  br i1 %14, label %15, label %31

15:                                               ; preds = %11
  %16 = load i32, ptr %10, align 4, !tbaa !11
  %17 = icmp ne i32 %16, 0
  br i1 %17, label %18, label %22

18:                                               ; preds = %15
  %19 = load ptr, ptr %6, align 8, !tbaa !4
  %20 = load ptr, ptr %7, align 8, !tbaa !9
  %21 = load ptr, ptr %8, align 8, !tbaa !9
  call void @decipher(ptr noundef %19, ptr noundef %20, ptr noundef %21, ptr noundef null)
  br label %26

22:                                               ; preds = %15
  %23 = load ptr, ptr %6, align 8, !tbaa !4
  %24 = load ptr, ptr %7, align 8, !tbaa !9
  %25 = load ptr, ptr %8, align 8, !tbaa !9
  call void @encipher(ptr noundef %23, ptr noundef %24, ptr noundef %25)
  br label %26

26:                                               ; preds = %22, %18
  %27 = load ptr, ptr %8, align 8, !tbaa !9
  %28 = getelementptr inbounds i8, ptr %27, i64 8
  store ptr %28, ptr %8, align 8, !tbaa !9
  %29 = load ptr, ptr %7, align 8, !tbaa !9
  %30 = getelementptr inbounds i8, ptr %29, i64 8
  store ptr %30, ptr %7, align 8, !tbaa !9
  br label %11, !llvm.loop !23

31:                                               ; preds = %11
  ret void
}