; Function Attrs: nofree norecurse nosync nounwind memory(readwrite, inaccessiblemem: none) uwtable
define void @av_cast5_crypt(ptr noundef readonly captures(none) %0, ptr noundef writeonly captures(none) %1, ptr noundef readonly captures(none) %2, i32 noundef %3, i32 noundef %4) local_unnamed_addr #8 {
  %.not13 = icmp eq i32 %3, 0
  br i1 %.not13, label %._crit_edge, label %.lr.ph

.lr.ph:                                           ; preds = %5
  %6 = add nsw i32 %3, -1
  %.not11 = icmp eq i32 %4, 0
  br i1 %.not11, label %.lr.ph.split.us, label %.lr.ph.split

.lr.ph.split.us:                                  ; preds = %.lr.ph, %.lr.ph.split.us
  %7 = phi i32 [ %11, %.lr.ph.split.us ], [ %6, %.lr.ph ]
  %.015.us = phi ptr [ %10, %.lr.ph.split.us ], [ %1, %.lr.ph ]
  %.01014.us = phi ptr [ %9, %.lr.ph.split.us ], [ %2, %.lr.ph ]
  %.010.val.us = load i32, ptr %.01014.us, align 1, !tbaa !9
  %8 = getelementptr i8, ptr %.01014.us, i64 4
  %.010.val12.us = load i32, ptr %8, align 1, !tbaa !9
  tail call fastcc void @encipher(ptr noundef %0, ptr noundef %.015.us, i32 %.010.val.us, i32 %.010.val12.us)
  %9 = getelementptr inbounds nuw i8, ptr %.01014.us, i64 8
  %10 = getelementptr inbounds nuw i8, ptr %.015.us, i64 8
  %11 = add nsw i32 %7, -1
  %.not.us = icmp eq i32 %7, 0
  br i1 %.not.us, label %._crit_edge, label %.lr.ph.split.us, !llvm.loop !16

.lr.ph.split:                                     ; preds = %.lr.ph, %.lr.ph.split
  %12 = phi i32 [ %15, %.lr.ph.split ], [ %6, %.lr.ph ]
  %.015 = phi ptr [ %14, %.lr.ph.split ], [ %1, %.lr.ph ]
  %.01014 = phi ptr [ %13, %.lr.ph.split ], [ %2, %.lr.ph ]
  tail call fastcc void @decipher(ptr noundef %0, ptr noundef %.015, ptr noundef %.01014, ptr noundef null)
  %13 = getelementptr inbounds nuw i8, ptr %.01014, i64 8
  %14 = getelementptr inbounds nuw i8, ptr %.015, i64 8
  %15 = add nsw i32 %12, -1
  %.not = icmp eq i32 %12, 0
  br i1 %.not, label %._crit_edge, label %.lr.ph.split, !llvm.loop !16

._crit_edge:                                      ; preds = %.lr.ph.split, %.lr.ph.split.us, %5
  ret void
}